; ModuleID = '48/1679.c'
source_filename = "48/1679.c"
target datalayout = "e-m:e-p270:32:32-p271:32:32-p272:64:64-i64:64-f80:128-n8:16:32:64-S128"
target triple = "x86_64-pc-linux-gnu"

@.str = private unnamed_addr constant [6 x i8] c"%d %d\00", align 1
@.str.1 = private unnamed_addr constant [2 x i8] c" \00", align 1
@.str.2 = private unnamed_addr constant [3 x i8] c"%d\00", align 1
@.str.3 = private unnamed_addr constant [2 x i8] c"\0A\00", align 1

; Function Attrs: noinline nounwind uwtable
define dso_local i32 @main() #0 {
  %1 = alloca i32, align 4
  %2 = alloca i32, align 4
  %3 = alloca i32, align 4
  %4 = alloca i32, align 4
  %5 = alloca i32, align 4
  %6 = alloca i32, align 4
  %7 = alloca i32, align 4
  %8 = alloca i32, align 4
  %9 = alloca i32, align 4
  %10 = alloca [9 x [9 x i32]], align 16
  %11 = alloca [9 x [9 x i32]], align 16
  store i32 0, i32* %1, align 4
  %12 = bitcast [9 x [9 x i32]]* %10 to i8*
  call void @llvm.memset.p0i8.i64(i8* align 16 %12, i8 0, i64 324, i1 false)
  %13 = bitcast [9 x [9 x i32]]* %11 to i8*
  call void @llvm.memset.p0i8.i64(i8* align 16 %13, i8 0, i64 324, i1 false)
  %14 = call i32 (i8*, ...) @__isoc99_scanf(i8* getelementptr inbounds ([6 x i8], [6 x i8]* @.str, i64 0, i64 0), i32* %3, i32* %2)
  %15 = load i32, i32* %3, align 4
  %16 = getelementptr inbounds [9 x [9 x i32]], [9 x [9 x i32]]* %10, i64 0, i64 4
  %17 = getelementptr inbounds [9 x i32], [9 x i32]* %16, i64 0, i64 4
  store i32 %15, i32* %17, align 16
  %18 = load i32, i32* %3, align 4
  %19 = getelementptr inbounds [9 x [9 x i32]], [9 x [9 x i32]]* %11, i64 0, i64 4
  %20 = getelementptr inbounds [9 x i32], [9 x i32]* %19, i64 0, i64 4
  store i32 %18, i32* %20, align 16
  store i32 0, i32* %4, align 4
  br label %21

21:                                               ; preds = %118, %0
  %22 = load i32, i32* %4, align 4
  %23 = load i32, i32* %2, align 4
  %24 = icmp slt i32 %22, %23
  br i1 %24, label %25, label %121

25:                                               ; preds = %21
  %26 = load i32, i32* %4, align 4
  %27 = sub nsw i32 4, %26
  store i32 %27, i32* %5, align 4
  br label %28

28:                                               ; preds = %85, %25
  %29 = load i32, i32* %5, align 4
  %30 = load i32, i32* %4, align 4
  %31 = add nsw i32 4, %30
  %32 = icmp sle i32 %29, %31
  br i1 %32, label %33, label %88

33:                                               ; preds = %28
  %34 = load i32, i32* %4, align 4
  %35 = sub nsw i32 4, %34
  store i32 %35, i32* %6, align 4
  br label %36

36:                                               ; preds = %81, %33
  %37 = load i32, i32* %6, align 4
  %38 = load i32, i32* %4, align 4
  %39 = add nsw i32 4, %38
  %40 = icmp sle i32 %37, %39
  br i1 %40, label %41, label %84

41:                                               ; preds = %36
  %42 = load i32, i32* %5, align 4
  %43 = sub nsw i32 %42, 1
  store i32 %43, i32* %7, align 4
  br label %44

44:                                               ; preds = %77, %41
  %45 = load i32, i32* %7, align 4
  %46 = load i32, i32* %5, align 4
  %47 = add nsw i32 %46, 1
  %48 = icmp sle i32 %45, %47
  br i1 %48, label %49, label %80

49:                                               ; preds = %44
  %50 = load i32, i32* %6, align 4
  %51 = sub nsw i32 %50, 1
  store i32 %51, i32* %8, align 4
  br label %52

52:                                               ; preds = %73, %49
  %53 = load i32, i32* %8, align 4
  %54 = load i32, i32* %6, align 4
  %55 = add nsw i32 %54, 1
  %56 = icmp sle i32 %53, %55
  br i1 %56, label %57, label %76

57:                                               ; preds = %52
  %58 = load i32, i32* %5, align 4
  %59 = sext i32 %58 to i64
  %60 = getelementptr inbounds [9 x [9 x i32]], [9 x [9 x i32]]* %11, i64 0, i64 %59
  %61 = load i32, i32* %6, align 4
  %62 = sext i32 %61 to i64
  %63 = getelementptr inbounds [9 x i32], [9 x i32]* %60, i64 0, i64 %62
  %64 = load i32, i32* %63, align 4
  %65 = load i32, i32* %7, align 4
  %66 = sext i32 %65 to i64
  %67 = getelementptr inbounds [9 x [9 x i32]], [9 x [9 x i32]]* %10, i64 0, i64 %66
  %68 = load i32, i32* %8, align 4
  %69 = sext i32 %68 to i64
  %70 = getelementptr inbounds [9 x i32], [9 x i32]* %67, i64 0, i64 %69
  %71 = load i32, i32* %70, align 4
  %72 = add nsw i32 %71, %64
  store i32 %72, i32* %70, align 4
  br label %73

73:                                               ; preds = %57
  %74 = load i32, i32* %8, align 4
  %75 = add nsw i32 %74, 1
  store i32 %75, i32* %8, align 4
  br label %52

76:                                               ; preds = %52
  br label %77

77:                                               ; preds = %76
  %78 = load i32, i32* %7, align 4
  %79 = add nsw i32 %78, 1
  store i32 %79, i32* %7, align 4
  br label %44

80:                                               ; preds = %44
  br label %81

81:                                               ; preds = %80
  %82 = load i32, i32* %6, align 4
  %83 = add nsw i32 %82, 1
  store i32 %83, i32* %6, align 4
  br label %36

84:                                               ; preds = %36
  br label %85

85:                                               ; preds = %84
  %86 = load i32, i32* %5, align 4
  %87 = add nsw i32 %86, 1
  store i32 %87, i32* %5, align 4
  br label %28

88:                                               ; preds = %28
  store i32 0, i32* %5, align 4
  br label %89

89:                                               ; preds = %114, %88
  %90 = load i32, i32* %5, align 4
  %91 = icmp slt i32 %90, 9
  br i1 %91, label %92, label %117

92:                                               ; preds = %89
  store i32 0, i32* %6, align 4
  br label %93

93:                                               ; preds = %110, %92
  %94 = load i32, i32* %6, align 4
  %95 = icmp slt i32 %94, 9
  br i1 %95, label %96, label %113

96:                                               ; preds = %93
  %97 = load i32, i32* %5, align 4
  %98 = sext i32 %97 to i64
  %99 = getelementptr inbounds [9 x [9 x i32]], [9 x [9 x i32]]* %10, i64 0, i64 %98
  %100 = load i32, i32* %6, align 4
  %101 = sext i32 %100 to i64
  %102 = getelementptr inbounds [9 x i32], [9 x i32]* %99, i64 0, i64 %101
  %103 = load i32, i32* %102, align 4
  %104 = load i32, i32* %5, align 4
  %105 = sext i32 %104 to i64
  %106 = getelementptr inbounds [9 x [9 x i32]], [9 x [9 x i32]]* %11, i64 0, i64 %105
  %107 = load i32, i32* %6, align 4
  %108 = sext i32 %107 to i64
  %109 = getelementptr inbounds [9 x i32], [9 x i32]* %106, i64 0, i64 %108
  store i32 %103, i32* %109, align 4
  br label %110

110:                                              ; preds = %96
  %111 = load i32, i32* %6, align 4
  %112 = add nsw i32 %111, 1
  store i32 %112, i32* %6, align 4
  br label %93

113:                                              ; preds = %93
  br label %114

114:                                              ; preds = %113
  %115 = load i32, i32* %5, align 4
  %116 = add nsw i32 %115, 1
  store i32 %116, i32* %5, align 4
  br label %89

117:                                              ; preds = %89
  br label %118

118:                                              ; preds = %117
  %119 = load i32, i32* %4, align 4
  %120 = add nsw i32 %119, 1
  store i32 %120, i32* %4, align 4
  br label %21

121:                                              ; preds = %21
  store i32 0, i32* %5, align 4
  br label %122

122:                                              ; preds = %148, %121
  %123 = load i32, i32* %5, align 4
  %124 = icmp slt i32 %123, 9
  br i1 %124, label %125, label %151

125:                                              ; preds = %122
  store i32 0, i32* %6, align 4
  br label %126

126:                                              ; preds = %143, %125
  %127 = load i32, i32* %6, align 4
  %128 = icmp slt i32 %127, 9
  br i1 %128, label %129, label %146

129:                                              ; preds = %126
  %130 = load i32, i32* %6, align 4
  %131 = icmp ne i32 %130, 0
  br i1 %131, label %132, label %134

132:                                              ; preds = %129
  %133 = call i32 (i8*, ...) @printf(i8* getelementptr inbounds ([2 x i8], [2 x i8]* @.str.1, i64 0, i64 0))
  br label %134

134:                                              ; preds = %132, %129
  %135 = load i32, i32* %5, align 4
  %136 = sext i32 %135 to i64
  %137 = getelementptr inbounds [9 x [9 x i32]], [9 x [9 x i32]]* %10, i64 0, i64 %136
  %138 = load i32, i32* %6, align 4
  %139 = sext i32 %138 to i64
  %140 = getelementptr inbounds [9 x i32], [9 x i32]* %137, i64 0, i64 %139
  %141 = load i32, i32* %140, align 4
  %142 = call i32 (i8*, ...) @printf(i8* getelementptr inbounds ([3 x i8], [3 x i8]* @.str.2, i64 0, i64 0), i32 %141)
  br label %143

143:                                              ; preds = %134
  %144 = load i32, i32* %6, align 4
  %145 = add nsw i32 %144, 1
  store i32 %145, i32* %6, align 4
  br label %126

146:                                              ; preds = %126
  %147 = call i32 (i8*, ...) @printf(i8* getelementptr inbounds ([2 x i8], [2 x i8]* @.str.3, i64 0, i64 0))
  br label %148

148:                                              ; preds = %146
  %149 = load i32, i32* %5, align 4
  %150 = add nsw i32 %149, 1
  store i32 %150, i32* %5, align 4
  br label %122

151:                                              ; preds = %122
  %152 = call i32 @getchar()
  %153 = call i32 @getchar()
  %154 = call i32 @getchar()
  %155 = load i32, i32* %1, align 4
  ret i32 %155
}

; Function Attrs: argmemonly nounwind willreturn
declare void @llvm.memset.p0i8.i64(i8* nocapture writeonly, i8, i64, i1 immarg) #1

declare dso_local i32 @__isoc99_scanf(i8*, ...) #2

declare dso_local i32 @printf(i8*, ...) #2

declare dso_local i32 @getchar() #2


!llvm.module.flags = !{!0}
!llvm.ident = !{!1}

!0 = !{i32 1, !"wchar_size", i32 4}
!1 = !{!"clang version 10.0.0-4ubuntu1 "}
