; ModuleID = 'source-C-CXX/47/1679.c'
source_filename = "source-C-CXX/47/1679.c"
target datalayout = "e-m:e-p270:32:32-p271:32:32-p272:64:64-i64:64-f80:128-n8:16:32:64-S128"
target triple = "x86_64-pc-linux-gnu"

%struct._IO_FILE = type { i32, i8*, i8*, i8*, i8*, i8*, i8*, i8*, i8*, i8*, i8*, i8*, %struct._IO_marker*, %struct._IO_FILE*, i32, i32, i64, i16, i8, [1 x i8], i8*, i64, %struct._IO_codecvt*, %struct._IO_wide_data*, %struct._IO_FILE*, i8*, i64, i32, [20 x i8] }
%struct._IO_marker = type opaque
%struct._IO_codecvt = type opaque
%struct._IO_wide_data = type opaque

@.str = private unnamed_addr constant [6 x i8] c"%d %d\00", align 1
@.str.2 = private unnamed_addr constant [3 x i8] c"%d\00", align 1
@stdin = external local_unnamed_addr global %struct._IO_FILE*, align 8

; Function Attrs: nofree nounwind sspstrong uwtable
define dso_local i32 @main() local_unnamed_addr #0 {
  %1 = alloca i32, align 4
  %2 = alloca i32, align 4
  %3 = alloca [9 x [9 x i32]], align 16
  %4 = bitcast [9 x [9 x i32]]* %3 to i8*
  %5 = alloca [9 x [9 x i32]], align 16
  %6 = bitcast [9 x [9 x i32]]* %5 to i8*
  %7 = bitcast i32* %1 to i8*
  call void @llvm.lifetime.start.p0i8(i64 4, i8* nonnull %7) #6
  %8 = bitcast i32* %2 to i8*
  call void @llvm.lifetime.start.p0i8(i64 4, i8* nonnull %8) #6
  call void @llvm.lifetime.start.p0i8(i64 324, i8* nonnull %4) #6
  call void @llvm.memset.p0i8.i64(i8* noundef nonnull align 16 dereferenceable(324) %4, i8 0, i64 324, i1 false)
  call void @llvm.lifetime.start.p0i8(i64 324, i8* nonnull %6) #6
  call void @llvm.memset.p0i8.i64(i8* noundef nonnull align 16 dereferenceable(324) %6, i8 0, i64 324, i1 false)
  %9 = call i32 (i8*, ...) @__isoc99_scanf(i8* getelementptr inbounds ([6 x i8], [6 x i8]* @.str, i64 0, i64 0), i32* nonnull %2, i32* nonnull %1)
  %10 = load i32, i32* %2, align 4, !tbaa !5
  %11 = getelementptr inbounds [9 x [9 x i32]], [9 x [9 x i32]]* %3, i64 0, i64 4, i64 4
  store i32 %10, i32* %11, align 16, !tbaa !5
  %12 = getelementptr inbounds [9 x [9 x i32]], [9 x [9 x i32]]* %5, i64 0, i64 4, i64 4
  store i32 %10, i32* %12, align 16, !tbaa !5
  %13 = load i32, i32* %1, align 4, !tbaa !5
  %14 = icmp sgt i32 %13, 0
  br i1 %14, label %16, label %15

15:                                               ; preds = %24, %0
  br label %85

16:                                               ; preds = %0, %24
  %17 = phi i32 [ %28, %24 ], [ 5, %0 ]
  %18 = phi i64 [ %27, %24 ], [ 4, %0 ]
  %19 = phi i64 [ %26, %24 ], [ 3, %0 ]
  %20 = phi i32 [ %25, %24 ], [ 0, %0 ]
  %21 = sub nsw i32 4, %20
  %22 = add nuw nsw i32 %20, 4
  %23 = icmp sgt i32 %21, %22
  br i1 %23, label %24, label %30

24:                                               ; preds = %35, %16
  call void @llvm.memcpy.p0i8.p0i8.i64(i8* noundef nonnull align 16 dereferenceable(324) %6, i8* noundef nonnull align 16 dereferenceable(324) %4, i64 324, i1 false)
  %25 = add nuw nsw i32 %20, 1
  %26 = add nsw i64 %19, -1
  %27 = add nsw i64 %18, -1
  %28 = add nuw i32 %17, 1
  %29 = icmp eq i32 %25, %13
  br i1 %29, label %15, label %16, !llvm.loop !9

30:                                               ; preds = %16, %35
  %31 = phi i64 [ %36, %35 ], [ %18, %16 ]
  %32 = phi i64 [ %33, %35 ], [ %19, %16 ]
  %33 = add nsw i64 %32, 1
  %34 = add nsw i64 %32, 2
  br label %46

35:                                               ; preds = %46
  %36 = add nsw i64 %31, 1
  %37 = trunc i64 %36 to i32
  %38 = icmp eq i32 %17, %37
  br i1 %38, label %24, label %30, !llvm.loop !11

39:                                               ; preds = %85
  %40 = load %struct._IO_FILE*, %struct._IO_FILE** @stdin, align 8, !tbaa !12
  %41 = call i32 @getc(%struct._IO_FILE* %40) #6
  %42 = load %struct._IO_FILE*, %struct._IO_FILE** @stdin, align 8, !tbaa !12
  %43 = call i32 @getc(%struct._IO_FILE* %42) #6
  %44 = load %struct._IO_FILE*, %struct._IO_FILE** @stdin, align 8, !tbaa !12
  %45 = call i32 @getc(%struct._IO_FILE* %44) #6
  call void @llvm.lifetime.end.p0i8(i64 324, i8* nonnull %6) #6
  call void @llvm.lifetime.end.p0i8(i64 324, i8* nonnull %4) #6
  call void @llvm.lifetime.end.p0i8(i64 4, i8* nonnull %8) #6
  call void @llvm.lifetime.end.p0i8(i64 4, i8* nonnull %7) #6
  ret i32 0

46:                                               ; preds = %46, %30
  %47 = phi i64 [ %18, %30 ], [ %82, %46 ]
  %48 = phi i64 [ %19, %30 ], [ %54, %46 ]
  %49 = getelementptr inbounds [9 x [9 x i32]], [9 x [9 x i32]]* %5, i64 0, i64 %31, i64 %47
  %50 = load i32, i32* %49, align 4, !tbaa !5
  %51 = getelementptr inbounds [9 x [9 x i32]], [9 x [9 x i32]]* %3, i64 0, i64 %32, i64 %48
  %52 = load i32, i32* %51, align 4, !tbaa !5
  %53 = add nsw i32 %52, %50
  store i32 %53, i32* %51, align 4, !tbaa !5
  %54 = add nsw i64 %48, 1
  %55 = getelementptr inbounds [9 x [9 x i32]], [9 x [9 x i32]]* %3, i64 0, i64 %32, i64 %54
  %56 = load i32, i32* %55, align 4, !tbaa !5
  %57 = add nsw i32 %56, %50
  store i32 %57, i32* %55, align 4, !tbaa !5
  %58 = add nsw i64 %48, 2
  %59 = getelementptr inbounds [9 x [9 x i32]], [9 x [9 x i32]]* %3, i64 0, i64 %32, i64 %58
  %60 = load i32, i32* %59, align 4, !tbaa !5
  %61 = add nsw i32 %60, %50
  store i32 %61, i32* %59, align 4, !tbaa !5
  %62 = getelementptr inbounds [9 x [9 x i32]], [9 x [9 x i32]]* %3, i64 0, i64 %33, i64 %48
  %63 = load i32, i32* %62, align 4, !tbaa !5
  %64 = add nsw i32 %63, %50
  store i32 %64, i32* %62, align 4, !tbaa !5
  %65 = getelementptr inbounds [9 x [9 x i32]], [9 x [9 x i32]]* %3, i64 0, i64 %33, i64 %54
  %66 = load i32, i32* %65, align 4, !tbaa !5
  %67 = add nsw i32 %66, %50
  store i32 %67, i32* %65, align 4, !tbaa !5
  %68 = add nsw i64 %48, 2
  %69 = getelementptr inbounds [9 x [9 x i32]], [9 x [9 x i32]]* %3, i64 0, i64 %33, i64 %68
  %70 = load i32, i32* %69, align 4, !tbaa !5
  %71 = add nsw i32 %70, %50
  store i32 %71, i32* %69, align 4, !tbaa !5
  %72 = getelementptr inbounds [9 x [9 x i32]], [9 x [9 x i32]]* %3, i64 0, i64 %34, i64 %48
  %73 = load i32, i32* %72, align 4, !tbaa !5
  %74 = add nsw i32 %73, %50
  store i32 %74, i32* %72, align 4, !tbaa !5
  %75 = getelementptr inbounds [9 x [9 x i32]], [9 x [9 x i32]]* %3, i64 0, i64 %34, i64 %54
  %76 = load i32, i32* %75, align 4, !tbaa !5
  %77 = add nsw i32 %76, %50
  store i32 %77, i32* %75, align 4, !tbaa !5
  %78 = add nsw i64 %48, 2
  %79 = getelementptr inbounds [9 x [9 x i32]], [9 x [9 x i32]]* %3, i64 0, i64 %34, i64 %78
  %80 = load i32, i32* %79, align 4, !tbaa !5
  %81 = add nsw i32 %80, %50
  store i32 %81, i32* %79, align 4, !tbaa !5
  %82 = add nsw i64 %47, 1
  %83 = trunc i64 %82 to i32
  %84 = icmp eq i32 %17, %83
  br i1 %84, label %35, label %46, !llvm.loop !14

85:                                               ; preds = %15, %85
  %86 = phi i64 [ %123, %85 ], [ 0, %15 ]
  %87 = getelementptr inbounds [9 x [9 x i32]], [9 x [9 x i32]]* %3, i64 0, i64 %86, i64 0
  %88 = load i32, i32* %87, align 4, !tbaa !5
  %89 = call i32 (i8*, ...) @printf(i8* nonnull dereferenceable(1) getelementptr inbounds ([3 x i8], [3 x i8]* @.str.2, i64 0, i64 0), i32 %88)
  %90 = call i32 @putchar(i32 32)
  %91 = getelementptr inbounds [9 x [9 x i32]], [9 x [9 x i32]]* %3, i64 0, i64 %86, i64 1
  %92 = load i32, i32* %91, align 4, !tbaa !5
  %93 = call i32 (i8*, ...) @printf(i8* nonnull dereferenceable(1) getelementptr inbounds ([3 x i8], [3 x i8]* @.str.2, i64 0, i64 0), i32 %92)
  %94 = call i32 @putchar(i32 32)
  %95 = getelementptr inbounds [9 x [9 x i32]], [9 x [9 x i32]]* %3, i64 0, i64 %86, i64 2
  %96 = load i32, i32* %95, align 4, !tbaa !5
  %97 = call i32 (i8*, ...) @printf(i8* nonnull dereferenceable(1) getelementptr inbounds ([3 x i8], [3 x i8]* @.str.2, i64 0, i64 0), i32 %96)
  %98 = call i32 @putchar(i32 32)
  %99 = getelementptr inbounds [9 x [9 x i32]], [9 x [9 x i32]]* %3, i64 0, i64 %86, i64 3
  %100 = load i32, i32* %99, align 4, !tbaa !5
  %101 = call i32 (i8*, ...) @printf(i8* nonnull dereferenceable(1) getelementptr inbounds ([3 x i8], [3 x i8]* @.str.2, i64 0, i64 0), i32 %100)
  %102 = call i32 @putchar(i32 32)
  %103 = getelementptr inbounds [9 x [9 x i32]], [9 x [9 x i32]]* %3, i64 0, i64 %86, i64 4
  %104 = load i32, i32* %103, align 4, !tbaa !5
  %105 = call i32 (i8*, ...) @printf(i8* nonnull dereferenceable(1) getelementptr inbounds ([3 x i8], [3 x i8]* @.str.2, i64 0, i64 0), i32 %104)
  %106 = call i32 @putchar(i32 32)
  %107 = getelementptr inbounds [9 x [9 x i32]], [9 x [9 x i32]]* %3, i64 0, i64 %86, i64 5
  %108 = load i32, i32* %107, align 4, !tbaa !5
  %109 = call i32 (i8*, ...) @printf(i8* nonnull dereferenceable(1) getelementptr inbounds ([3 x i8], [3 x i8]* @.str.2, i64 0, i64 0), i32 %108)
  %110 = call i32 @putchar(i32 32)
  %111 = getelementptr inbounds [9 x [9 x i32]], [9 x [9 x i32]]* %3, i64 0, i64 %86, i64 6
  %112 = load i32, i32* %111, align 4, !tbaa !5
  %113 = call i32 (i8*, ...) @printf(i8* nonnull dereferenceable(1) getelementptr inbounds ([3 x i8], [3 x i8]* @.str.2, i64 0, i64 0), i32 %112)
  %114 = call i32 @putchar(i32 32)
  %115 = getelementptr inbounds [9 x [9 x i32]], [9 x [9 x i32]]* %3, i64 0, i64 %86, i64 7
  %116 = load i32, i32* %115, align 4, !tbaa !5
  %117 = call i32 (i8*, ...) @printf(i8* nonnull dereferenceable(1) getelementptr inbounds ([3 x i8], [3 x i8]* @.str.2, i64 0, i64 0), i32 %116)
  %118 = call i32 @putchar(i32 32)
  %119 = getelementptr inbounds [9 x [9 x i32]], [9 x [9 x i32]]* %3, i64 0, i64 %86, i64 8
  %120 = load i32, i32* %119, align 4, !tbaa !5
  %121 = call i32 (i8*, ...) @printf(i8* nonnull dereferenceable(1) getelementptr inbounds ([3 x i8], [3 x i8]* @.str.2, i64 0, i64 0), i32 %120)
  %122 = call i32 @putchar(i32 10)
  %123 = add nuw nsw i64 %86, 1
  %124 = icmp eq i64 %123, 9
  br i1 %124, label %39, label %85, !llvm.loop !15
}

; Function Attrs: argmemonly mustprogress nofree nosync nounwind willreturn
declare void @llvm.lifetime.start.p0i8(i64 immarg, i8* nocapture) #1

; Function Attrs: argmemonly mustprogress nofree nounwind willreturn writeonly
declare void @llvm.memset.p0i8.i64(i8* nocapture writeonly, i8, i64, i1 immarg) #2

; Function Attrs: nofree nounwind
declare noundef i32 @__isoc99_scanf(i8* nocapture noundef readonly, ...) local_unnamed_addr #3

; Function Attrs: nofree nounwind
declare noundef i32 @printf(i8* nocapture noundef readonly, ...) local_unnamed_addr #3

; Function Attrs: argmemonly mustprogress nofree nosync nounwind willreturn
declare void @llvm.lifetime.end.p0i8(i64 immarg, i8* nocapture) #1

; Function Attrs: nofree nounwind
declare noundef i32 @getc(%struct._IO_FILE* nocapture noundef) local_unnamed_addr #3

; Function Attrs: nofree nounwind
declare noundef i32 @putchar(i32 noundef) local_unnamed_addr #4

; Function Attrs: argmemonly nofree nounwind willreturn
declare void @llvm.memcpy.p0i8.p0i8.i64(i8* noalias nocapture writeonly, i8* noalias nocapture readonly, i64, i1 immarg) #5


!llvm.module.flags = !{!0, !1, !2, !3}
!llvm.ident = !{!4}

!0 = !{i32 1, !"wchar_size", i32 4}
!1 = !{i32 7, !"PIC Level", i32 2}
!2 = !{i32 7, !"PIE Level", i32 2}
!3 = !{i32 7, !"uwtable", i32 1}
!4 = !{!"clang version 13.0.0"}
!5 = !{!6, !6, i64 0}
!6 = !{!"int", !7, i64 0}
!7 = !{!"omnipotent char", !8, i64 0}
!8 = !{!"Simple C/C++ TBAA"}
!9 = distinct !{!9, !10}
!10 = !{!"llvm.loop.mustprogress"}
!11 = distinct !{!11, !10}
!12 = !{!13, !13, i64 0}
!13 = !{!"any pointer", !7, i64 0}
!14 = distinct !{!14, !10}
!15 = distinct !{!15, !10}
